; Function Attrs: inlinehint nounwind uwtable
define internal fastcc void @lxb_html_tree_insertion_mode_in_body_dd_dt_closed(ptr noundef %0, ptr noundef %1) unnamed_addr #3 {
  %3 = getelementptr inbounds nuw i8, ptr %1, i64 80
  %4 = load i64, ptr %3, align 8, !tbaa !18
  %5 = tail call ptr @lxb_html_tree_element_in_scope(ptr noundef %0, i64 noundef %4, i64 noundef 2, i32 noundef 8) #6
  %6 = icmp eq ptr %5, null
  br i1 %6, label %7, label %8

7:                                                ; preds = %2
  tail call void @lxb_html_tree_parse_error(ptr noundef %0, ptr noundef nonnull %1, i32 noundef 1) #6
  br label %28

8:                                                ; preds = %2
  %9 = load i64, ptr %3, align 8, !tbaa !18
  tail call void @lxb_html_tree_generate_implied_end_tags(ptr noundef %0, i64 noundef %9, i64 noundef 2) #6
  %10 = getelementptr i8, ptr %0, i64 32
  %.val = load ptr, ptr %10, align 8, !tbaa !33
  %11 = getelementptr inbounds nuw i8, ptr %.val, i64 16
  %12 = load i64, ptr %11, align 8, !tbaa !34
  %13 = icmp eq i64 %12, 0
  br i1 %13, label %lxb_html_tree_current_node.exit, label %14

14:                                               ; preds = %8
  %15 = load ptr, ptr %.val, align 8, !tbaa !36
  %16 = getelementptr ptr, ptr %15, i64 %12
  %17 = getelementptr i8, ptr %16, i64 -8
  %18 = load ptr, ptr %17, align 8, !tbaa !37
  br label %lxb_html_tree_current_node.exit

lxb_html_tree_current_node.exit:                  ; preds = %8, %14
  %.0.i = phi ptr [ %18, %14 ], [ null, %8 ]
  %19 = load i64, ptr %3, align 8, !tbaa !18
  %20 = getelementptr inbounds nuw i8, ptr %.0.i, i64 8
  %21 = load i64, ptr %20, align 8, !tbaa !38
  %22 = icmp eq i64 %21, %19
  br i1 %22, label %lxb_html_tree_node_is.exit, label %lxb_html_tree_node_is.exit.thread

lxb_html_tree_node_is.exit:                       ; preds = %lxb_html_tree_current_node.exit
  %23 = getelementptr inbounds nuw i8, ptr %.0.i, i64 24
  %24 = load i64, ptr %23, align 8, !tbaa !42
  %25 = icmp eq i64 %24, 2
  br i1 %25, label %26, label %lxb_html_tree_node_is.exit.thread

lxb_html_tree_node_is.exit.thread:                ; preds = %lxb_html_tree_current_node.exit, %lxb_html_tree_node_is.exit
  tail call void @lxb_html_tree_parse_error(ptr noundef nonnull %0, ptr noundef nonnull %1, i32 noundef 22) #6
  %.pre = load i64, ptr %3, align 8, !tbaa !18
  br label %26

26:                                               ; preds = %lxb_html_tree_node_is.exit.thread, %lxb_html_tree_node_is.exit
  %27 = phi i64 [ %.pre, %lxb_html_tree_node_is.exit.thread ], [ %19, %lxb_html_tree_node_is.exit ]
  tail call void @lxb_html_tree_open_elements_pop_until_tag_id(ptr noundef nonnull %0, i64 noundef %27, i64 noundef 2, i1 noundef zeroext true) #6
  br label %28

28:                                               ; preds = %26, %7
  ret void
}